; Function Attrs: mustprogress uwtable
define internal noundef nonnull ptr @_ZN7testing8internal15TestFactoryImplIN12_GLOBAL__N_131DiskInterfaceTest_MakeDirs_TestEE10CreateTestEv(ptr nocapture nonnull readnone align 8 %0) unnamed_addr #3 align 2 personality ptr @__gxx_personality_v0 {
  %2 = tail call noalias noundef nonnull dereferenceable(88) ptr @_Znwm(i64 noundef 88) #23
  invoke void @_ZN7testing4TestC2Ev(ptr noundef nonnull align 8 dereferenceable(16) %2)
          to label %.noexc unwind label %9

.noexc:                                           ; preds = %1
  store ptr getelementptr inbounds ({ [8 x ptr] }, ptr @_ZTVN12_GLOBAL__N_117DiskInterfaceTestE, i64 0, i32 0, i64 2), ptr %2, align 8
  %3 = getelementptr inbounds i8, ptr %2, i64 16
  tail call void @_ZNSt7__cxx1112basic_stringIcSt11char_traitsIcESaIcEEC1Ev(ptr noundef nonnull align 8 dereferenceable(32) %3) #21
  %4 = getelementptr inbounds i8, ptr %2, i64 48
  tail call void @_ZNSt7__cxx1112basic_stringIcSt11char_traitsIcESaIcEEC1Ev(ptr noundef nonnull align 8 dereferenceable(32) %4) #21
  %5 = getelementptr inbounds i8, ptr %2, i64 80
  invoke void @_ZN17RealDiskInterfaceC1Ev(ptr noundef nonnull align 8 dereferenceable(8) %5)
          to label %8 unwind label %6

6:                                                ; preds = %.noexc
  %7 = landingpad { ptr, i32 }
          cleanup
  tail call void @_ZNSt7__cxx1112basic_stringIcSt11char_traitsIcESaIcEED1Ev(ptr noundef nonnull align 8 dereferenceable(32) %4) #21
  tail call void @_ZNSt7__cxx1112basic_stringIcSt11char_traitsIcESaIcEED1Ev(ptr noundef nonnull align 8 dereferenceable(32) %3) #21
  tail call void @_ZN7testing4TestD2Ev(ptr noundef nonnull align 8 dereferenceable(16) %2) #21
  br label %.body

8:                                                ; preds = %.noexc
  store ptr getelementptr inbounds ({ [8 x ptr] }, ptr @_ZTVN12_GLOBAL__N_131DiskInterfaceTest_MakeDirs_TestE, i64 0, i32 0, i64 2), ptr %2, align 8
  ret ptr %2

9:                                                ; preds = %1
  %10 = landingpad { ptr, i32 }
          cleanup
  br label %.body

.body:                                            ; preds = %6, %9
  %eh.lpad-body = phi { ptr, i32 } [ %10, %9 ], [ %7, %6 ]
  tail call void @_ZdlPv(ptr noundef nonnull %2) #22
  resume { ptr, i32 } %eh.lpad-body
}